; Function Attrs: mustprogress uwtable
define void @_ZN4cvc58internal11FatalStream5FlushEv(ptr nonnull readnone align 1 captures(none) %0) local_unnamed_addr #3 align 2 {
  %2 = load ptr, ptr @_ZSt4cerr, align 8, !tbaa !3
  %3 = getelementptr i8, ptr %2, i64 -24
  %4 = load i64, ptr %3, align 8
  %5 = getelementptr inbounds i8, ptr @_ZSt4cerr, i64 %4
  %6 = getelementptr inbounds nuw i8, ptr %5, i64 240
  %7 = load ptr, ptr %6, align 8, !tbaa !19
  %.not.i.i.i = icmp eq ptr %7, null
  br i1 %.not.i.i.i, label %8, label %_ZSt13__check_facetISt5ctypeIcEERKT_PS3_.exit.i.i

8:                                                ; preds = %1
  tail call void @_ZSt16__throw_bad_castv() #24
  unreachable

_ZSt13__check_facetISt5ctypeIcEERKT_PS3_.exit.i.i: ; preds = %1
  %9 = getelementptr inbounds nuw i8, ptr %7, i64 56
  %10 = load i8, ptr %9, align 8, !tbaa !27
  %.not.i1.i.i = icmp eq i8 %10, 0
  br i1 %.not.i1.i.i, label %14, label %11

11:                                               ; preds = %_ZSt13__check_facetISt5ctypeIcEERKT_PS3_.exit.i.i
  %12 = getelementptr inbounds nuw i8, ptr %7, i64 67
  %13 = load i8, ptr %12, align 1, !tbaa !33
  br label %_ZSt4endlIcSt11char_traitsIcEERSt13basic_ostreamIT_T0_ES6_.exit

14:                                               ; preds = %_ZSt13__check_facetISt5ctypeIcEERKT_PS3_.exit.i.i
  tail call void @_ZNKSt5ctypeIcE13_M_widen_initEv(ptr noundef nonnull align 8 dereferenceable(570) %7)
  %15 = load ptr, ptr %7, align 8, !tbaa !3
  %16 = getelementptr inbounds nuw i8, ptr %15, i64 48
  %17 = load ptr, ptr %16, align 8
  %18 = tail call noundef signext i8 %17(ptr noundef nonnull align 8 dereferenceable(570) %7, i8 noundef signext 10)
  br label %_ZSt4endlIcSt11char_traitsIcEERSt13basic_ostreamIT_T0_ES6_.exit

_ZSt4endlIcSt11char_traitsIcEERSt13basic_ostreamIT_T0_ES6_.exit: ; preds = %11, %14
  %.0.i.i.i = phi i8 [ %13, %11 ], [ %18, %14 ]
  %19 = tail call noundef nonnull align 8 dereferenceable(8) ptr @_ZNSo3putEc(ptr noundef nonnull align 8 dereferenceable(8) @_ZSt4cerr, i8 noundef signext %.0.i.i.i)
  %20 = tail call noundef nonnull align 8 dereferenceable(8) ptr @_ZNSo5flushEv(ptr noundef nonnull align 8 dereferenceable(8) %19)
  %21 = tail call noundef nonnull align 8 dereferenceable(8) ptr @_ZNSo5flushEv(ptr noundef nonnull align 8 dereferenceable(8) @_ZSt4cerr)
  ret void
}